target datalayout = "e-m:e-p270:32:32-p271:32:32-p272:64:64-i64:64-i128:128-f80:128-n8:16:32:64-S128"
target triple = "x86_64-pc-linux-gnu"

%struct._generic_SUNMatrix = type { ptr, ptr, ptr }
%struct._SUNMatrixContent_Sparse = type { i64, i64, i64, i64, ptr, i32, ptr, ptr, ptr, ptr, ptr, ptr }

; Function Attrs: nounwind uwtable
define void @SUNMatDestroy_Sparse(ptr noundef %0) #0 {
  %2 = alloca ptr, align 8
  store ptr %0, ptr %2, align 8, !tbaa !12
  %3 = load ptr, ptr %2, align 8, !tbaa !12
  %4 = icmp eq ptr %3, null
  br i1 %4, label %5, label %6

5:                                                ; preds = %1
  br label %97

6:                                                ; preds = %1
  %7 = load ptr, ptr %2, align 8, !tbaa !12
  %8 = getelementptr inbounds nuw %struct._generic_SUNMatrix, ptr %7, i32 0, i32 0
  %9 = load ptr, ptr %8, align 8, !tbaa !29
  %10 = icmp ne ptr %9, null
  br i1 %10, label %11, label %84

11:                                               ; preds = %6
  %12 = load ptr, ptr %2, align 8, !tbaa !12
  %13 = getelementptr inbounds nuw %struct._generic_SUNMatrix, ptr %12, i32 0, i32 0
  %14 = load ptr, ptr %13, align 8, !tbaa !29
  %15 = getelementptr inbounds nuw %struct._SUNMatrixContent_Sparse, ptr %14, i32 0, i32 4
  %16 = load ptr, ptr %15, align 8, !tbaa !43
  %17 = icmp ne ptr %16, null
  br i1 %17, label %18, label %28

18:                                               ; preds = %11
  %19 = load ptr, ptr %2, align 8, !tbaa !12
  %20 = getelementptr inbounds nuw %struct._generic_SUNMatrix, ptr %19, i32 0, i32 0
  %21 = load ptr, ptr %20, align 8, !tbaa !29
  %22 = getelementptr inbounds nuw %struct._SUNMatrixContent_Sparse, ptr %21, i32 0, i32 4
  %23 = load ptr, ptr %22, align 8, !tbaa !43
  call void @free(ptr noundef %23) #8
  %24 = load ptr, ptr %2, align 8, !tbaa !12
  %25 = getelementptr inbounds nuw %struct._generic_SUNMatrix, ptr %24, i32 0, i32 0
  %26 = load ptr, ptr %25, align 8, !tbaa !29
  %27 = getelementptr inbounds nuw %struct._SUNMatrixContent_Sparse, ptr %26, i32 0, i32 4
  store ptr null, ptr %27, align 8, !tbaa !43
  br label %28

28:                                               ; preds = %18, %11
  %29 = load ptr, ptr %2, align 8, !tbaa !12
  %30 = getelementptr inbounds nuw %struct._generic_SUNMatrix, ptr %29, i32 0, i32 0
  %31 = load ptr, ptr %30, align 8, !tbaa !29
  %32 = getelementptr inbounds nuw %struct._SUNMatrixContent_Sparse, ptr %31, i32 0, i32 6
  %33 = load ptr, ptr %32, align 8, !tbaa !44
  %34 = icmp ne ptr %33, null
  br i1 %34, label %35, label %53

35:                                               ; preds = %28
  %36 = load ptr, ptr %2, align 8, !tbaa !12
  %37 = getelementptr inbounds nuw %struct._generic_SUNMatrix, ptr %36, i32 0, i32 0
  %38 = load ptr, ptr %37, align 8, !tbaa !29
  %39 = getelementptr inbounds nuw %struct._SUNMatrixContent_Sparse, ptr %38, i32 0, i32 6
  %40 = load ptr, ptr %39, align 8, !tbaa !44
  call void @free(ptr noundef %40) #8
  %41 = load ptr, ptr %2, align 8, !tbaa !12
  %42 = getelementptr inbounds nuw %struct._generic_SUNMatrix, ptr %41, i32 0, i32 0
  %43 = load ptr, ptr %42, align 8, !tbaa !29
  %44 = getelementptr inbounds nuw %struct._SUNMatrixContent_Sparse, ptr %43, i32 0, i32 6
  store ptr null, ptr %44, align 8, !tbaa !44
  %45 = load ptr, ptr %2, align 8, !tbaa !12
  %46 = getelementptr inbounds nuw %struct._generic_SUNMatrix, ptr %45, i32 0, i32 0
  %47 = load ptr, ptr %46, align 8, !tbaa !29
  %48 = getelementptr inbounds nuw %struct._SUNMatrixContent_Sparse, ptr %47, i32 0, i32 8
  store ptr null, ptr %48, align 8, !tbaa !39
  %49 = load ptr, ptr %2, align 8, !tbaa !12
  %50 = getelementptr inbounds nuw %struct._generic_SUNMatrix, ptr %49, i32 0, i32 0
  %51 = load ptr, ptr %50, align 8, !tbaa !29
  %52 = getelementptr inbounds nuw %struct._SUNMatrixContent_Sparse, ptr %51, i32 0, i32 10
  store ptr null, ptr %52, align 8, !tbaa !41
  br label %53

53:                                               ; preds = %35, %28
  %54 = load ptr, ptr %2, align 8, !tbaa !12
  %55 = getelementptr inbounds nuw %struct._generic_SUNMatrix, ptr %54, i32 0, i32 0
  %56 = load ptr, ptr %55, align 8, !tbaa !29
  %57 = getelementptr inbounds nuw %struct._SUNMatrixContent_Sparse, ptr %56, i32 0, i32 7
  %58 = load ptr, ptr %57, align 8, !tbaa !45
  %59 = icmp ne ptr %58, null
  br i1 %59, label %60, label %78

60:                                               ; preds = %53
  %61 = load ptr, ptr %2, align 8, !tbaa !12
  %62 = getelementptr inbounds nuw %struct._generic_SUNMatrix, ptr %61, i32 0, i32 0
  %63 = load ptr, ptr %62, align 8, !tbaa !29
  %64 = getelementptr inbounds nuw %struct._SUNMatrixContent_Sparse, ptr %63, i32 0, i32 7
  %65 = load ptr, ptr %64, align 8, !tbaa !45
  call void @free(ptr noundef %65) #8
  %66 = load ptr, ptr %2, align 8, !tbaa !12
  %67 = getelementptr inbounds nuw %struct._generic_SUNMatrix, ptr %66, i32 0, i32 0
  %68 = load ptr, ptr %67, align 8, !tbaa !29
  %69 = getelementptr inbounds nuw %struct._SUNMatrixContent_Sparse, ptr %68, i32 0, i32 7
  store ptr null, ptr %69, align 8, !tbaa !45
  %70 = load ptr, ptr %2, align 8, !tbaa !12
  %71 = getelementptr inbounds nuw %struct._generic_SUNMatrix, ptr %70, i32 0, i32 0
  %72 = load ptr, ptr %71, align 8, !tbaa !29
  %73 = getelementptr inbounds nuw %struct._SUNMatrixContent_Sparse, ptr %72, i32 0, i32 9
  store ptr null, ptr %73, align 8, !tbaa !40
  %74 = load ptr, ptr %2, align 8, !tbaa !12
  %75 = getelementptr inbounds nuw %struct._generic_SUNMatrix, ptr %74, i32 0, i32 0
  %76 = load ptr, ptr %75, align 8, !tbaa !29
  %77 = getelementptr inbounds nuw %struct._SUNMatrixContent_Sparse, ptr %76, i32 0, i32 11
  store ptr null, ptr %77, align 8, !tbaa !42
  br label %78

78:                                               ; preds = %60, %53
  %79 = load ptr, ptr %2, align 8, !tbaa !12
  %80 = getelementptr inbounds nuw %struct._generic_SUNMatrix, ptr %79, i32 0, i32 0
  %81 = load ptr, ptr %80, align 8, !tbaa !29
  call void @free(ptr noundef %81) #8
  %82 = load ptr, ptr %2, align 8, !tbaa !12
  %83 = getelementptr inbounds nuw %struct._generic_SUNMatrix, ptr %82, i32 0, i32 0
  store ptr null, ptr %83, align 8, !tbaa !29
  br label %84

84:                                               ; preds = %78, %6
  %85 = load ptr, ptr %2, align 8, !tbaa !12
  %86 = getelementptr inbounds nuw %struct._generic_SUNMatrix, ptr %85, i32 0, i32 1
  %87 = load ptr, ptr %86, align 8, !tbaa !14
  %88 = icmp ne ptr %87, null
  br i1 %88, label %89, label %95

89:                                               ; preds = %84
  %90 = load ptr, ptr %2, align 8, !tbaa !12
  %91 = getelementptr inbounds nuw %struct._generic_SUNMatrix, ptr %90, i32 0, i32 1
  %92 = load ptr, ptr %91, align 8, !tbaa !14
  call void @free(ptr noundef %92) #8
  %93 = load ptr, ptr %2, align 8, !tbaa !12
  %94 = getelementptr inbounds nuw %struct._generic_SUNMatrix, ptr %93, i32 0, i32 1
  store ptr null, ptr %94, align 8, !tbaa !14
  br label %95

95:                                               ; preds = %89, %84
  %96 = load ptr, ptr %2, align 8, !tbaa !12
  call void @free(ptr noundef %96) #8
  store ptr null, ptr %2, align 8, !tbaa !12
  br label %97

97:                                               ; preds = %95, %5
  ret void
}