; Function Attrs: mustprogress nounwind willreturn uwtable
define void @SUNMatDestroy_Sparse(ptr noundef captures(address_is_null) %0) #3 {
  %2 = icmp eq ptr %0, null
  br i1 %2, label %36, label %3

3:                                                ; preds = %1
  %4 = load ptr, ptr %0, align 8, !tbaa !20
  %.not = icmp eq ptr %4, null
  br i1 %.not, label %31, label %5

5:                                                ; preds = %3
  %6 = getelementptr inbounds nuw i8, ptr %4, i64 32
  %7 = load ptr, ptr %6, align 8, !tbaa !33
  %.not26 = icmp eq ptr %7, null
  br i1 %.not26, label %11, label %8

8:                                                ; preds = %5
  tail call void @free(ptr noundef nonnull %7) #17
  %9 = load ptr, ptr %0, align 8, !tbaa !20
  %10 = getelementptr inbounds nuw i8, ptr %9, i64 32
  store ptr null, ptr %10, align 8, !tbaa !33
  br label %11

11:                                               ; preds = %8, %5
  %12 = phi ptr [ %9, %8 ], [ %4, %5 ]
  %13 = getelementptr inbounds nuw i8, ptr %12, i64 48
  %14 = load ptr, ptr %13, align 8, !tbaa !34
  %.not27 = icmp eq ptr %14, null
  br i1 %.not27, label %20, label %15

15:                                               ; preds = %11
  tail call void @free(ptr noundef nonnull %14) #17
  %16 = load ptr, ptr %0, align 8, !tbaa !20
  %17 = getelementptr inbounds nuw i8, ptr %16, i64 48
  store ptr null, ptr %17, align 8, !tbaa !34
  %18 = getelementptr inbounds nuw i8, ptr %16, i64 64
  store ptr null, ptr %18, align 8, !tbaa !37
  %19 = getelementptr inbounds nuw i8, ptr %16, i64 80
  store ptr null, ptr %19, align 8, !tbaa !38
  br label %20

20:                                               ; preds = %15, %11
  %21 = phi ptr [ %16, %15 ], [ %12, %11 ]
  %22 = getelementptr inbounds nuw i8, ptr %21, i64 56
  %23 = load ptr, ptr %22, align 8, !tbaa !35
  %.not28 = icmp eq ptr %23, null
  br i1 %.not28, label %29, label %24

24:                                               ; preds = %20
  tail call void @free(ptr noundef nonnull %23) #17
  %25 = load ptr, ptr %0, align 8, !tbaa !20
  %26 = getelementptr inbounds nuw i8, ptr %25, i64 56
  store ptr null, ptr %26, align 8, !tbaa !35
  %27 = getelementptr inbounds nuw i8, ptr %25, i64 72
  store ptr null, ptr %27, align 8, !tbaa !39
  %28 = getelementptr inbounds nuw i8, ptr %25, i64 88
  store ptr null, ptr %28, align 8, !tbaa !40
  br label %29

29:                                               ; preds = %24, %20
  %30 = phi ptr [ %25, %24 ], [ %21, %20 ]
  tail call void @free(ptr noundef nonnull %30) #17
  store ptr null, ptr %0, align 8, !tbaa !20
  br label %31

31:                                               ; preds = %29, %3
  %32 = getelementptr inbounds nuw i8, ptr %0, i64 8
  %33 = load ptr, ptr %32, align 8, !tbaa !3
  %.not29 = icmp eq ptr %33, null
  br i1 %.not29, label %35, label %34

34:                                               ; preds = %31
  tail call void @free(ptr noundef nonnull %33) #17
  br label %35

35:                                               ; preds = %34, %31
  tail call void @free(ptr noundef nonnull %0) #17
  br label %36

36:                                               ; preds = %1, %35
  ret void
}